; Function Attrs: nounwind uwtable
define ptr @l_Lean_PersistentHashMap_toList___at_Lean_Environment_dbgFormatAsyncState___spec__23(ptr noundef %0) local_unnamed_addr #1 {
  %2 = load ptr, ptr @l_Lean_PersistentHashMap_toList___at_Lean_Environment_dbgFormatAsyncState___spec__23___closed__1, align 8, !tbaa !9
  %3 = ptrtoint ptr %0 to i64
  %4 = and i64 %3, 1
  %.not.i45.i = icmp eq i64 %4, 0
  br i1 %.not.i45.i, label %8, label %5

5:                                                ; preds = %1
  %6 = lshr i64 %3, 1
  %7 = trunc i64 %6 to i32
  br label %lean_obj_tag.exit.i

8:                                                ; preds = %1
  %9 = getelementptr i8, ptr %0, i64 4
  %.val.i.i = load i32, ptr %9, align 4
  %10 = lshr i32 %.val.i.i, 24
  br label %lean_obj_tag.exit.i

lean_obj_tag.exit.i:                              ; preds = %8, %5
  %.0.i46.i = phi i32 [ %7, %5 ], [ %10, %8 ]
  %11 = icmp eq i32 %.0.i46.i, 0
  %12 = getelementptr inbounds nuw i8, ptr %0, i64 8
  %13 = load ptr, ptr %12, align 8, !tbaa !9
  br i1 %11, label %lean_nat_lt.exit.i, label %25

lean_nat_lt.exit.i:                               ; preds = %lean_obj_tag.exit.i
  %14 = getelementptr i8, ptr %13, i64 8
  %.val.i = load i64, ptr %14, align 8, !tbaa !15
  %.mask.i = and i64 %.val.i, 9223372036854775807
  %.not.i = icmp eq i64 %.mask.i, 0
  br i1 %.not.i, label %lean_dec.exit34.i, label %lean_dec.exit.i

lean_dec.exit34.i:                                ; preds = %lean_nat_lt.exit.i
  %15 = ptrtoint ptr %2 to i64
  %16 = and i64 %15, 1
  %.not48.i = icmp eq i64 %16, 0
  br i1 %.not48.i, label %17, label %l_Lean_PersistentHashMap_foldlMAux___at_Lean_Environment_dbgFormatAsyncState___spec__25___rarg.exit

17:                                               ; preds = %lean_dec.exit34.i
  %18 = load i32, ptr %2, align 4, !tbaa !4
  %19 = icmp sgt i32 %18, 1
  br i1 %19, label %20, label %22, !prof !11

20:                                               ; preds = %17
  %21 = add nsw i32 %18, -1
  store i32 %21, ptr %2, align 4, !tbaa !4
  br label %l_Lean_PersistentHashMap_foldlMAux___at_Lean_Environment_dbgFormatAsyncState___spec__25___rarg.exit

22:                                               ; preds = %17
  %.not.i35.i = icmp eq i32 %18, 0
  br i1 %.not.i35.i, label %l_Lean_PersistentHashMap_foldlMAux___at_Lean_Environment_dbgFormatAsyncState___spec__25___rarg.exit, label %23

23:                                               ; preds = %22
  tail call void @lean_dec_ref_cold(ptr noundef nonnull %2) #10
  br label %l_Lean_PersistentHashMap_foldlMAux___at_Lean_Environment_dbgFormatAsyncState___spec__25___rarg.exit

lean_dec.exit.i:                                  ; preds = %lean_nat_lt.exit.i
  %24 = tail call ptr @l_Array_foldlMUnsafe_fold___at_Lean_Environment_dbgFormatAsyncState___spec__26___rarg(ptr noundef %2, ptr noundef nonnull %13, i64 noundef 0, i64 noundef %.mask.i, ptr noundef nonnull inttoptr (i64 1 to ptr)) #12
  br label %l_Lean_PersistentHashMap_foldlMAux___at_Lean_Environment_dbgFormatAsyncState___spec__25___rarg.exit

25:                                               ; preds = %lean_obj_tag.exit.i
  %26 = getelementptr inbounds nuw i8, ptr %0, i64 16
  %27 = load ptr, ptr %26, align 8, !tbaa !9
  %28 = tail call ptr @l_Lean_PersistentHashMap_foldlMAux_traverse___at_Lean_Environment_dbgFormatAsyncState___spec__27___rarg(ptr noundef %2, ptr noundef %13, ptr noundef %27, ptr nonnull poison, ptr noundef nonnull inttoptr (i64 1 to ptr), ptr noundef nonnull inttoptr (i64 1 to ptr))
  br label %l_Lean_PersistentHashMap_foldlMAux___at_Lean_Environment_dbgFormatAsyncState___spec__25___rarg.exit

l_Lean_PersistentHashMap_foldlMAux___at_Lean_Environment_dbgFormatAsyncState___spec__25___rarg.exit: ; preds = %lean_dec.exit34.i, %20, %22, %23, %lean_dec.exit.i, %25
  %.2.i = phi ptr [ %28, %25 ], [ %24, %lean_dec.exit.i ], [ inttoptr (i64 1 to ptr), %23 ], [ inttoptr (i64 1 to ptr), %22 ], [ inttoptr (i64 1 to ptr), %20 ], [ inttoptr (i64 1 to ptr), %lean_dec.exit34.i ]
  ret ptr %.2.i
}